
PWM_Detect.elf:     file format elf32-avr

Sections:
Idx Name          Size      VMA       LMA       File off  Algn
  0 .text         00000c10  00000000  00000000  00000094  2**1
                  CONTENTS, ALLOC, LOAD, READONLY, CODE
  1 .data         0000008a  00800060  00000c10  00000ca4  2**0
                  CONTENTS, ALLOC, LOAD, DATA
  2 .bss          00000017  008000ea  008000ea  00000d2e  2**0
                  ALLOC
  3 .comment      00000030  00000000  00000000  00000d2e  2**0
                  CONTENTS, READONLY
  4 .note.gnu.avr.deviceinfo 0000003c  00000000  00000000  00000d60  2**2
                  CONTENTS, READONLY
  5 .debug_info   000004e6  00000000  00000000  00000d9c  2**0
                  CONTENTS, READONLY, DEBUGGING
  6 .debug_abbrev 000004a3  00000000  00000000  00001282  2**0
                  CONTENTS, READONLY, DEBUGGING
  7 .debug_line   00000116  00000000  00000000  00001725  2**0
                  CONTENTS, READONLY, DEBUGGING
  8 .debug_str    00000196  00000000  00000000  0000183b  2**0
                  CONTENTS, READONLY, DEBUGGING

Disassembly of section .text:

00000000 <__vectors>:
   0:	0c 94 2a 00 	jmp	0x54	; 0x54 <__ctors_end>
   4:	0c 94 bc 03 	jmp	0x778	; 0x778 <__vector_1>
   8:	0c 94 e5 03 	jmp	0x7ca	; 0x7ca <__vector_2>
   c:	0c 94 0e 04 	jmp	0x81c	; 0x81c <__vector_3>
  10:	0c 94 dd 05 	jmp	0xbba	; 0xbba <__vector_4>
  14:	0c 94 b4 05 	jmp	0xb68	; 0xb68 <__vector_5>
  18:	0c 94 8b 05 	jmp	0xb16	; 0xb16 <__vector_6>
  1c:	0c 94 39 05 	jmp	0xa72	; 0xa72 <__vector_7>
  20:	0c 94 62 05 	jmp	0xac4	; 0xac4 <__vector_8>
  24:	0c 94 10 05 	jmp	0xa20	; 0xa20 <__vector_9>
  28:	0c 94 a0 04 	jmp	0x940	; 0x940 <__vector_10>
  2c:	0c 94 77 04 	jmp	0x8ee	; 0x8ee <__vector_11>
  30:	0c 94 47 00 	jmp	0x8e	; 0x8e <__bad_interrupt>
  34:	0c 94 47 00 	jmp	0x8e	; 0x8e <__bad_interrupt>
  38:	0c 94 47 00 	jmp	0x8e	; 0x8e <__bad_interrupt>
  3c:	0c 94 47 00 	jmp	0x8e	; 0x8e <__bad_interrupt>
  40:	0c 94 47 00 	jmp	0x8e	; 0x8e <__bad_interrupt>
  44:	0c 94 47 00 	jmp	0x8e	; 0x8e <__bad_interrupt>
  48:	0c 94 47 00 	jmp	0x8e	; 0x8e <__bad_interrupt>
  4c:	0c 94 47 00 	jmp	0x8e	; 0x8e <__bad_interrupt>
  50:	0c 94 47 00 	jmp	0x8e	; 0x8e <__bad_interrupt>

00000054 <__ctors_end>:
  54:	11 24       	eor	r1, r1
  56:	1f be       	out	0x3f, r1	; 63
  58:	cf e5       	ldi	r28, 0x5F	; 95
  5a:	d8 e0       	ldi	r29, 0x08	; 8
  5c:	de bf       	out	0x3e, r29	; 62
  5e:	cd bf       	out	0x3d, r28	; 61

00000060 <__do_copy_data>:
  60:	10 e0       	ldi	r17, 0x00	; 0
  62:	a0 e6       	ldi	r26, 0x60	; 96
  64:	b0 e0       	ldi	r27, 0x00	; 0
  66:	e0 e1       	ldi	r30, 0x10	; 16
  68:	fc e0       	ldi	r31, 0x0C	; 12
  6a:	02 c0       	rjmp	.+4      	; 0x70 <__do_copy_data+0x10>
  6c:	05 90       	lpm	r0, Z+
  6e:	0d 92       	st	X+, r0
  70:	aa 3e       	cpi	r26, 0xEA	; 234
  72:	b1 07       	cpc	r27, r17
  74:	d9 f7       	brne	.-10     	; 0x6c <__do_copy_data+0xc>

00000076 <__do_clear_bss>:
  76:	21 e0       	ldi	r18, 0x01	; 1
  78:	aa ee       	ldi	r26, 0xEA	; 234
  7a:	b0 e0       	ldi	r27, 0x00	; 0
  7c:	01 c0       	rjmp	.+2      	; 0x80 <.do_clear_bss_start>

0000007e <.do_clear_bss_loop>:
  7e:	1d 92       	st	X+, r1

00000080 <.do_clear_bss_start>:
  80:	a1 30       	cpi	r26, 0x01	; 1
  82:	b2 07       	cpc	r27, r18
  84:	e1 f7       	brne	.-8      	; 0x7e <.do_clear_bss_loop>
  86:	0e 94 24 02 	call	0x448	; 0x448 <main>
  8a:	0c 94 06 06 	jmp	0xc0c	; 0xc0c <_exit>

0000008e <__bad_interrupt>:
  8e:	0c 94 00 00 	jmp	0	; 0x0 <__vectors>

00000092 <PWM_Detect_Init>:
  92:	0e 94 29 02 	call	0x452	; 0x452 <DIO_INIT>
  96:	65 e0       	ldi	r22, 0x05	; 5
  98:	83 e0       	ldi	r24, 0x03	; 3
  9a:	0e 94 37 04 	call	0x86e	; 0x86e <Timer0_Init>
  9e:	82 e0       	ldi	r24, 0x02	; 2
  a0:	0e 94 5c 04 	call	0x8b8	; 0x8b8 <Timer0_OC0Mode>
  a4:	1c be       	out	0x3c, r1	; 60
  a6:	64 e0       	ldi	r22, 0x04	; 4
  a8:	81 e0       	ldi	r24, 0x01	; 1
  aa:	0e 94 c9 04 	call	0x992	; 0x992 <Timer1_Init>
  ae:	80 e0       	ldi	r24, 0x00	; 0
  b0:	0e 94 05 05 	call	0xa0a	; 0xa0a <Timer1_InputCaptureEdge>
  b4:	0e 94 d2 01 	call	0x3a4	; 0x3a4 <LCD_Init>
  b8:	0c 94 a8 00 	jmp	0x150	; 0x150 <KeyPad_Init>

000000bc <PWM_Detect>:
  bc:	cf 93       	push	r28
  be:	df 93       	push	r29
  c0:	0e 94 b3 00 	call	0x166	; 0x166 <KeyPad_GetKey>
  c4:	8e 34       	cpi	r24, 0x4E	; 78
  c6:	81 f1       	breq	.+96     	; 0x128 <PWM_Detect+0x6c>
  c8:	8b 32       	cpi	r24, 0x2B	; 43
  ca:	81 f4       	brne	.+32     	; 0xec <PWM_Detect+0x30>
  cc:	80 91 00 01 	lds	r24, 0x0100	; 0x800100 <Speed>
  d0:	85 30       	cpi	r24, 0x05	; 5
  d2:	51 f1       	breq	.+84     	; 0x128 <PWM_Detect+0x6c>
  d4:	8f 5f       	subi	r24, 0xFF	; 255
  d6:	80 93 00 01 	sts	0x0100, r24	; 0x800100 <Speed>
  da:	0e 94 21 02 	call	0x442	; 0x442 <LCD_Clear>
  de:	60 e0       	ldi	r22, 0x00	; 0
  e0:	80 e0       	ldi	r24, 0x00	; 0
  e2:	0e 94 0f 02 	call	0x41e	; 0x41e <LCD_GoTo>
  e6:	80 e6       	ldi	r24, 0x60	; 96
  e8:	90 e0       	ldi	r25, 0x00	; 0
  ea:	11 c0       	rjmp	.+34     	; 0x10e <PWM_Detect+0x52>
  ec:	8d 32       	cpi	r24, 0x2D	; 45
  ee:	e1 f4       	brne	.+56     	; 0x128 <PWM_Detect+0x6c>
  f0:	80 91 00 01 	lds	r24, 0x0100	; 0x800100 <Speed>
  f4:	88 23       	and	r24, r24
  f6:	c1 f0       	breq	.+48     	; 0x128 <PWM_Detect+0x6c>
  f8:	81 50       	subi	r24, 0x01	; 1
  fa:	80 93 00 01 	sts	0x0100, r24	; 0x800100 <Speed>
  fe:	0e 94 21 02 	call	0x442	; 0x442 <LCD_Clear>
 102:	60 e0       	ldi	r22, 0x00	; 0
 104:	80 e0       	ldi	r24, 0x00	; 0
 106:	0e 94 0f 02 	call	0x41e	; 0x41e <LCD_GoTo>
 10a:	8f e7       	ldi	r24, 0x7F	; 127
 10c:	90 e0       	ldi	r25, 0x00	; 0
 10e:	0e 94 fc 01 	call	0x3f8	; 0x3f8 <LCD_SendString>
 112:	80 91 00 01 	lds	r24, 0x0100	; 0x800100 <Speed>
 116:	0e 94 fa 01 	call	0x3f4	; 0x3f4 <LCD_SendChar>
 11a:	80 91 00 01 	lds	r24, 0x0100	; 0x800100 <Speed>
 11e:	9c ec       	ldi	r25, 0xCC	; 204
 120:	89 9f       	mul	r24, r25
 122:	80 2d       	mov	r24, r0
 124:	11 24       	eor	r1, r1
 126:	8c bf       	out	0x3c, r24	; 60
 128:	c7 b5       	in	r28, 0x27	; 39
 12a:	86 b5       	in	r24, 0x26	; 38
 12c:	d0 e0       	ldi	r29, 0x00	; 0
 12e:	dc 2f       	mov	r29, r28
 130:	cc 27       	eor	r28, r28
 132:	c8 0f       	add	r28, r24
 134:	d1 1d       	adc	r29, r1
 136:	60 e0       	ldi	r22, 0x00	; 0
 138:	82 e0       	ldi	r24, 0x02	; 2
 13a:	0e 94 0f 02 	call	0x41e	; 0x41e <LCD_GoTo>
 13e:	8e e9       	ldi	r24, 0x9E	; 158
 140:	90 e0       	ldi	r25, 0x00	; 0
 142:	0e 94 fc 01 	call	0x3f8	; 0x3f8 <LCD_SendString>
 146:	8c 2f       	mov	r24, r28
 148:	df 91       	pop	r29
 14a:	cf 91       	pop	r28
 14c:	0c 94 fa 01 	jmp	0x3f4	; 0x3f4 <LCD_SendChar>

00000150 <KeyPad_Init>:
 150:	cf 93       	push	r28
 152:	c5 e1       	ldi	r28, 0x15	; 21
 154:	61 e0       	ldi	r22, 0x01	; 1
 156:	8c 2f       	mov	r24, r28
 158:	0e 94 0c 03 	call	0x618	; 0x618 <setpinvalue>
 15c:	c1 50       	subi	r28, 0x01	; 1
 15e:	c1 31       	cpi	r28, 0x11	; 17
 160:	c9 f7       	brne	.-14     	; 0x154 <KeyPad_Init+0x4>
 162:	cf 91       	pop	r28
 164:	08 95       	ret

00000166 <KeyPad_GetKey>:
 166:	9f 92       	push	r9
 168:	af 92       	push	r10
 16a:	bf 92       	push	r11
 16c:	cf 92       	push	r12
 16e:	df 92       	push	r13
 170:	ef 92       	push	r14
 172:	ff 92       	push	r15
 174:	0f 93       	push	r16
 176:	1f 93       	push	r17
 178:	cf 93       	push	r28
 17a:	df 93       	push	r29
 17c:	1f 92       	push	r1
 17e:	cd b7       	in	r28, 0x3d	; 61
 180:	de b7       	in	r29, 0x3e	; 62
 182:	8e e4       	ldi	r24, 0x4E	; 78
 184:	89 83       	std	Y+1, r24	; 0x01
 186:	9a eb       	ldi	r25, 0xBA	; 186
 188:	c9 2e       	mov	r12, r25
 18a:	90 e0       	ldi	r25, 0x00	; 0
 18c:	d9 2e       	mov	r13, r25
 18e:	15 e1       	ldi	r17, 0x15	; 21
 190:	0e e4       	ldi	r16, 0x4E	; 78
 192:	60 e0       	ldi	r22, 0x00	; 0
 194:	81 2f       	mov	r24, r17
 196:	0e 94 0c 03 	call	0x618	; 0x618 <setpinvalue>
 19a:	86 eb       	ldi	r24, 0xB6	; 182
 19c:	a8 2e       	mov	r10, r24
 19e:	80 e0       	ldi	r24, 0x00	; 0
 1a0:	b8 2e       	mov	r11, r24
 1a2:	e1 2c       	mov	r14, r1
 1a4:	f1 2c       	mov	r15, r1
 1a6:	f5 01       	movw	r30, r10
 1a8:	91 90       	ld	r9, Z+
 1aa:	5f 01       	movw	r10, r30
 1ac:	be 01       	movw	r22, r28
 1ae:	6f 5f       	subi	r22, 0xFF	; 255
 1b0:	7f 4f       	sbci	r23, 0xFF	; 255
 1b2:	89 2d       	mov	r24, r9
 1b4:	0e 94 99 03 	call	0x732	; 0x732 <getpinvalue>
 1b8:	89 81       	ldd	r24, Y+1	; 0x01
 1ba:	81 11       	cpse	r24, r1
 1bc:	14 c0       	rjmp	.+40     	; 0x1e6 <KeyPad_GetKey+0x80>
 1be:	f6 01       	movw	r30, r12
 1c0:	ee 0d       	add	r30, r14
 1c2:	ff 1d       	adc	r31, r15
 1c4:	00 81       	ld	r16, Z
 1c6:	8f e3       	ldi	r24, 0x3F	; 63
 1c8:	9c e9       	ldi	r25, 0x9C	; 156
 1ca:	01 97       	sbiw	r24, 0x01	; 1
 1cc:	f1 f7       	brne	.-4      	; 0x1ca <KeyPad_GetKey+0x64>
 1ce:	00 c0       	rjmp	.+0      	; 0x1d0 <KeyPad_GetKey+0x6a>
 1d0:	00 00       	nop
 1d2:	89 81       	ldd	r24, Y+1	; 0x01
 1d4:	81 11       	cpse	r24, r1
 1d6:	07 c0       	rjmp	.+14     	; 0x1e6 <KeyPad_GetKey+0x80>
 1d8:	be 01       	movw	r22, r28
 1da:	6f 5f       	subi	r22, 0xFF	; 255
 1dc:	7f 4f       	sbci	r23, 0xFF	; 255
 1de:	89 2d       	mov	r24, r9
 1e0:	0e 94 99 03 	call	0x732	; 0x732 <getpinvalue>
 1e4:	f6 cf       	rjmp	.-20     	; 0x1d2 <KeyPad_GetKey+0x6c>
 1e6:	9f ef       	ldi	r25, 0xFF	; 255
 1e8:	e9 1a       	sub	r14, r25
 1ea:	f9 0a       	sbc	r15, r25
 1ec:	e4 e0       	ldi	r30, 0x04	; 4
 1ee:	ee 16       	cp	r14, r30
 1f0:	f1 04       	cpc	r15, r1
 1f2:	c9 f6       	brne	.-78     	; 0x1a6 <KeyPad_GetKey+0x40>
 1f4:	61 e0       	ldi	r22, 0x01	; 1
 1f6:	81 2f       	mov	r24, r17
 1f8:	0e 94 0c 03 	call	0x618	; 0x618 <setpinvalue>
 1fc:	11 50       	subi	r17, 0x01	; 1
 1fe:	f4 e0       	ldi	r31, 0x04	; 4
 200:	cf 0e       	add	r12, r31
 202:	d1 1c       	adc	r13, r1
 204:	11 31       	cpi	r17, 0x11	; 17
 206:	29 f6       	brne	.-118    	; 0x192 <KeyPad_GetKey+0x2c>
 208:	80 2f       	mov	r24, r16
 20a:	0f 90       	pop	r0
 20c:	df 91       	pop	r29
 20e:	cf 91       	pop	r28
 210:	1f 91       	pop	r17
 212:	0f 91       	pop	r16
 214:	ff 90       	pop	r15
 216:	ef 90       	pop	r14
 218:	df 90       	pop	r13
 21a:	cf 90       	pop	r12
 21c:	bf 90       	pop	r11
 21e:	af 90       	pop	r10
 220:	9f 90       	pop	r9
 222:	08 95       	ret

00000224 <LCD_SendCommand>:
 224:	cf 93       	push	r28
 226:	c8 2f       	mov	r28, r24
 228:	60 e0       	ldi	r22, 0x00	; 0
 22a:	83 e0       	ldi	r24, 0x03	; 3
 22c:	0e 94 0c 03 	call	0x618	; 0x618 <setpinvalue>
 230:	c4 fb       	bst	r28, 4
 232:	66 27       	eor	r22, r22
 234:	60 f9       	bld	r22, 0
 236:	88 e0       	ldi	r24, 0x08	; 8
 238:	0e 94 0c 03 	call	0x618	; 0x618 <setpinvalue>
 23c:	c5 fb       	bst	r28, 5
 23e:	66 27       	eor	r22, r22
 240:	60 f9       	bld	r22, 0
 242:	89 e0       	ldi	r24, 0x09	; 9
 244:	0e 94 0c 03 	call	0x618	; 0x618 <setpinvalue>
 248:	c6 fb       	bst	r28, 6
 24a:	66 27       	eor	r22, r22
 24c:	60 f9       	bld	r22, 0
 24e:	8a e0       	ldi	r24, 0x0A	; 10
 250:	0e 94 0c 03 	call	0x618	; 0x618 <setpinvalue>
 254:	6c 2f       	mov	r22, r28
 256:	66 1f       	adc	r22, r22
 258:	66 27       	eor	r22, r22
 25a:	66 1f       	adc	r22, r22
 25c:	8c e0       	ldi	r24, 0x0C	; 12
 25e:	0e 94 0c 03 	call	0x618	; 0x618 <setpinvalue>
 262:	61 e0       	ldi	r22, 0x01	; 1
 264:	82 e0       	ldi	r24, 0x02	; 2
 266:	0e 94 0c 03 	call	0x618	; 0x618 <setpinvalue>
 26a:	8f e9       	ldi	r24, 0x9F	; 159
 26c:	9f e0       	ldi	r25, 0x0F	; 15
 26e:	01 97       	sbiw	r24, 0x01	; 1
 270:	f1 f7       	brne	.-4      	; 0x26e <LCD_SendCommand+0x4a>
 272:	00 c0       	rjmp	.+0      	; 0x274 <LCD_SendCommand+0x50>
 274:	00 00       	nop
 276:	60 e0       	ldi	r22, 0x00	; 0
 278:	82 e0       	ldi	r24, 0x02	; 2
 27a:	0e 94 0c 03 	call	0x618	; 0x618 <setpinvalue>
 27e:	8f e9       	ldi	r24, 0x9F	; 159
 280:	9f e0       	ldi	r25, 0x0F	; 15
 282:	01 97       	sbiw	r24, 0x01	; 1
 284:	f1 f7       	brne	.-4      	; 0x282 <LCD_SendCommand+0x5e>
 286:	00 c0       	rjmp	.+0      	; 0x288 <LCD_SendCommand+0x64>
 288:	00 00       	nop
 28a:	6c 2f       	mov	r22, r28
 28c:	61 70       	andi	r22, 0x01	; 1
 28e:	88 e0       	ldi	r24, 0x08	; 8
 290:	0e 94 0c 03 	call	0x618	; 0x618 <setpinvalue>
 294:	c1 fb       	bst	r28, 1
 296:	66 27       	eor	r22, r22
 298:	60 f9       	bld	r22, 0
 29a:	89 e0       	ldi	r24, 0x09	; 9
 29c:	0e 94 0c 03 	call	0x618	; 0x618 <setpinvalue>
 2a0:	c2 fb       	bst	r28, 2
 2a2:	66 27       	eor	r22, r22
 2a4:	60 f9       	bld	r22, 0
 2a6:	8a e0       	ldi	r24, 0x0A	; 10
 2a8:	0e 94 0c 03 	call	0x618	; 0x618 <setpinvalue>
 2ac:	c3 fb       	bst	r28, 3
 2ae:	66 27       	eor	r22, r22
 2b0:	60 f9       	bld	r22, 0
 2b2:	8c e0       	ldi	r24, 0x0C	; 12
 2b4:	0e 94 0c 03 	call	0x618	; 0x618 <setpinvalue>
 2b8:	61 e0       	ldi	r22, 0x01	; 1
 2ba:	82 e0       	ldi	r24, 0x02	; 2
 2bc:	0e 94 0c 03 	call	0x618	; 0x618 <setpinvalue>
 2c0:	8f e9       	ldi	r24, 0x9F	; 159
 2c2:	9f e0       	ldi	r25, 0x0F	; 15
 2c4:	01 97       	sbiw	r24, 0x01	; 1
 2c6:	f1 f7       	brne	.-4      	; 0x2c4 <LCD_SendCommand+0xa0>
 2c8:	00 c0       	rjmp	.+0      	; 0x2ca <LCD_SendCommand+0xa6>
 2ca:	00 00       	nop
 2cc:	60 e0       	ldi	r22, 0x00	; 0
 2ce:	82 e0       	ldi	r24, 0x02	; 2
 2d0:	0e 94 0c 03 	call	0x618	; 0x618 <setpinvalue>
 2d4:	8f e9       	ldi	r24, 0x9F	; 159
 2d6:	9f e0       	ldi	r25, 0x0F	; 15
 2d8:	01 97       	sbiw	r24, 0x01	; 1
 2da:	f1 f7       	brne	.-4      	; 0x2d8 <LCD_SendCommand+0xb4>
 2dc:	00 c0       	rjmp	.+0      	; 0x2de <LCD_SendCommand+0xba>
 2de:	00 00       	nop
 2e0:	cf 91       	pop	r28
 2e2:	08 95       	ret

000002e4 <LCD_SendData>:
 2e4:	cf 93       	push	r28
 2e6:	c8 2f       	mov	r28, r24
 2e8:	61 e0       	ldi	r22, 0x01	; 1
 2ea:	83 e0       	ldi	r24, 0x03	; 3
 2ec:	0e 94 0c 03 	call	0x618	; 0x618 <setpinvalue>
 2f0:	c4 fb       	bst	r28, 4
 2f2:	66 27       	eor	r22, r22
 2f4:	60 f9       	bld	r22, 0
 2f6:	88 e0       	ldi	r24, 0x08	; 8
 2f8:	0e 94 0c 03 	call	0x618	; 0x618 <setpinvalue>
 2fc:	c5 fb       	bst	r28, 5
 2fe:	66 27       	eor	r22, r22
 300:	60 f9       	bld	r22, 0
 302:	89 e0       	ldi	r24, 0x09	; 9
 304:	0e 94 0c 03 	call	0x618	; 0x618 <setpinvalue>
 308:	c6 fb       	bst	r28, 6
 30a:	66 27       	eor	r22, r22
 30c:	60 f9       	bld	r22, 0
 30e:	8a e0       	ldi	r24, 0x0A	; 10
 310:	0e 94 0c 03 	call	0x618	; 0x618 <setpinvalue>
 314:	6c 2f       	mov	r22, r28
 316:	66 1f       	adc	r22, r22
 318:	66 27       	eor	r22, r22
 31a:	66 1f       	adc	r22, r22
 31c:	8c e0       	ldi	r24, 0x0C	; 12
 31e:	0e 94 0c 03 	call	0x618	; 0x618 <setpinvalue>
 322:	61 e0       	ldi	r22, 0x01	; 1
 324:	82 e0       	ldi	r24, 0x02	; 2
 326:	0e 94 0c 03 	call	0x618	; 0x618 <setpinvalue>
 32a:	8f e9       	ldi	r24, 0x9F	; 159
 32c:	9f e0       	ldi	r25, 0x0F	; 15
 32e:	01 97       	sbiw	r24, 0x01	; 1
 330:	f1 f7       	brne	.-4      	; 0x32e <LCD_SendData+0x4a>
 332:	00 c0       	rjmp	.+0      	; 0x334 <LCD_SendData+0x50>
 334:	00 00       	nop
 336:	60 e0       	ldi	r22, 0x00	; 0
 338:	82 e0       	ldi	r24, 0x02	; 2
 33a:	0e 94 0c 03 	call	0x618	; 0x618 <setpinvalue>
 33e:	8f e9       	ldi	r24, 0x9F	; 159
 340:	9f e0       	ldi	r25, 0x0F	; 15
 342:	01 97       	sbiw	r24, 0x01	; 1
 344:	f1 f7       	brne	.-4      	; 0x342 <LCD_SendData+0x5e>
 346:	00 c0       	rjmp	.+0      	; 0x348 <LCD_SendData+0x64>
 348:	00 00       	nop
 34a:	6c 2f       	mov	r22, r28
 34c:	61 70       	andi	r22, 0x01	; 1
 34e:	88 e0       	ldi	r24, 0x08	; 8
 350:	0e 94 0c 03 	call	0x618	; 0x618 <setpinvalue>
 354:	c1 fb       	bst	r28, 1
 356:	66 27       	eor	r22, r22
 358:	60 f9       	bld	r22, 0
 35a:	89 e0       	ldi	r24, 0x09	; 9
 35c:	0e 94 0c 03 	call	0x618	; 0x618 <setpinvalue>
 360:	c2 fb       	bst	r28, 2
 362:	66 27       	eor	r22, r22
 364:	60 f9       	bld	r22, 0
 366:	8a e0       	ldi	r24, 0x0A	; 10
 368:	0e 94 0c 03 	call	0x618	; 0x618 <setpinvalue>
 36c:	c3 fb       	bst	r28, 3
 36e:	66 27       	eor	r22, r22
 370:	60 f9       	bld	r22, 0
 372:	8c e0       	ldi	r24, 0x0C	; 12
 374:	0e 94 0c 03 	call	0x618	; 0x618 <setpinvalue>
 378:	61 e0       	ldi	r22, 0x01	; 1
 37a:	82 e0       	ldi	r24, 0x02	; 2
 37c:	0e 94 0c 03 	call	0x618	; 0x618 <setpinvalue>
 380:	8f e9       	ldi	r24, 0x9F	; 159
 382:	9f e0       	ldi	r25, 0x0F	; 15
 384:	01 97       	sbiw	r24, 0x01	; 1
 386:	f1 f7       	brne	.-4      	; 0x384 <LCD_SendData+0xa0>
 388:	00 c0       	rjmp	.+0      	; 0x38a <LCD_SendData+0xa6>
 38a:	00 00       	nop
 38c:	60 e0       	ldi	r22, 0x00	; 0
 38e:	82 e0       	ldi	r24, 0x02	; 2
 390:	0e 94 0c 03 	call	0x618	; 0x618 <setpinvalue>
 394:	8f e9       	ldi	r24, 0x9F	; 159
 396:	9f e0       	ldi	r25, 0x0F	; 15
 398:	01 97       	sbiw	r24, 0x01	; 1
 39a:	f1 f7       	brne	.-4      	; 0x398 <LCD_SendData+0xb4>
 39c:	00 c0       	rjmp	.+0      	; 0x39e <LCD_SendData+0xba>
 39e:	00 00       	nop
 3a0:	cf 91       	pop	r28
 3a2:	08 95       	ret

000003a4 <LCD_Init>:
 3a4:	8f e5       	ldi	r24, 0x5F	; 95
 3a6:	9a ee       	ldi	r25, 0xEA	; 234
 3a8:	01 97       	sbiw	r24, 0x01	; 1
 3aa:	f1 f7       	brne	.-4      	; 0x3a8 <LCD_Init+0x4>
 3ac:	00 c0       	rjmp	.+0      	; 0x3ae <LCD_Init+0xa>
 3ae:	00 00       	nop
 3b0:	82 e0       	ldi	r24, 0x02	; 2
 3b2:	0e 94 12 01 	call	0x224	; 0x224 <LCD_SendCommand>
 3b6:	8f e3       	ldi	r24, 0x3F	; 63
 3b8:	9f e1       	ldi	r25, 0x1F	; 31
 3ba:	01 97       	sbiw	r24, 0x01	; 1
 3bc:	f1 f7       	brne	.-4      	; 0x3ba <LCD_Init+0x16>
 3be:	00 c0       	rjmp	.+0      	; 0x3c0 <LCD_Init+0x1c>
 3c0:	00 00       	nop
 3c2:	88 e2       	ldi	r24, 0x28	; 40
 3c4:	0e 94 12 01 	call	0x224	; 0x224 <LCD_SendCommand>
 3c8:	8f e3       	ldi	r24, 0x3F	; 63
 3ca:	9f e1       	ldi	r25, 0x1F	; 31
 3cc:	01 97       	sbiw	r24, 0x01	; 1
 3ce:	f1 f7       	brne	.-4      	; 0x3cc <LCD_Init+0x28>
 3d0:	00 c0       	rjmp	.+0      	; 0x3d2 <LCD_Init+0x2e>
 3d2:	00 00       	nop
 3d4:	8c e0       	ldi	r24, 0x0C	; 12
 3d6:	0e 94 12 01 	call	0x224	; 0x224 <LCD_SendCommand>
 3da:	86 e0       	ldi	r24, 0x06	; 6
 3dc:	0e 94 12 01 	call	0x224	; 0x224 <LCD_SendCommand>
 3e0:	81 e0       	ldi	r24, 0x01	; 1
 3e2:	0e 94 12 01 	call	0x224	; 0x224 <LCD_SendCommand>
 3e6:	8f e3       	ldi	r24, 0x3F	; 63
 3e8:	9f e1       	ldi	r25, 0x1F	; 31
 3ea:	01 97       	sbiw	r24, 0x01	; 1
 3ec:	f1 f7       	brne	.-4      	; 0x3ea <LCD_Init+0x46>
 3ee:	00 c0       	rjmp	.+0      	; 0x3f0 <LCD_Init+0x4c>
 3f0:	00 00       	nop
 3f2:	08 95       	ret

000003f4 <LCD_SendChar>:
 3f4:	0c 94 72 01 	jmp	0x2e4	; 0x2e4 <LCD_SendData>

000003f8 <LCD_SendString>:
 3f8:	0f 93       	push	r16
 3fa:	1f 93       	push	r17
 3fc:	cf 93       	push	r28
 3fe:	8c 01       	movw	r16, r24
 400:	c0 e0       	ldi	r28, 0x00	; 0
 402:	f8 01       	movw	r30, r16
 404:	ec 0f       	add	r30, r28
 406:	f1 1d       	adc	r31, r1
 408:	80 81       	ld	r24, Z
 40a:	88 23       	and	r24, r24
 40c:	21 f0       	breq	.+8      	; 0x416 <__EEPROM_REGION_LENGTH__+0x16>
 40e:	0e 94 72 01 	call	0x2e4	; 0x2e4 <LCD_SendData>
 412:	cf 5f       	subi	r28, 0xFF	; 255
 414:	f6 cf       	rjmp	.-20     	; 0x402 <__EEPROM_REGION_LENGTH__+0x2>
 416:	cf 91       	pop	r28
 418:	1f 91       	pop	r17
 41a:	0f 91       	pop	r16
 41c:	08 95       	ret

0000041e <LCD_GoTo>:
 41e:	81 30       	cpi	r24, 0x01	; 1
 420:	39 f0       	breq	.+14     	; 0x430 <LCD_GoTo+0x12>
 422:	58 f0       	brcs	.+22     	; 0x43a <LCD_GoTo+0x1c>
 424:	82 30       	cpi	r24, 0x02	; 2
 426:	31 f0       	breq	.+12     	; 0x434 <LCD_GoTo+0x16>
 428:	83 30       	cpi	r24, 0x03	; 3
 42a:	31 f4       	brne	.+12     	; 0x438 <LCD_GoTo+0x1a>
 42c:	6c 5a       	subi	r22, 0xAC	; 172
 42e:	05 c0       	rjmp	.+10     	; 0x43a <LCD_GoTo+0x1c>
 430:	60 5c       	subi	r22, 0xC0	; 192
 432:	03 c0       	rjmp	.+6      	; 0x43a <LCD_GoTo+0x1c>
 434:	6c 5e       	subi	r22, 0xEC	; 236
 436:	01 c0       	rjmp	.+2      	; 0x43a <LCD_GoTo+0x1c>
 438:	60 e0       	ldi	r22, 0x00	; 0
 43a:	86 2f       	mov	r24, r22
 43c:	80 68       	ori	r24, 0x80	; 128
 43e:	0c 94 12 01 	jmp	0x224	; 0x224 <LCD_SendCommand>

00000442 <LCD_Clear>:
 442:	81 e0       	ldi	r24, 0x01	; 1
 444:	0c 94 12 01 	jmp	0x224	; 0x224 <LCD_SendCommand>

00000448 <main>:
 448:	0e 94 49 00 	call	0x92	; 0x92 <PWM_Detect_Init>
 44c:	0e 94 5e 00 	call	0xbc	; 0xbc <PWM_Detect>
 450:	fd cf       	rjmp	.-6      	; 0x44c <main+0x4>

00000452 <DIO_INIT>:
 452:	ea ec       	ldi	r30, 0xCA	; 202
 454:	f0 e0       	ldi	r31, 0x00	; 0
 456:	40 e0       	ldi	r20, 0x00	; 0
 458:	81 e0       	ldi	r24, 0x01	; 1
 45a:	90 e0       	ldi	r25, 0x00	; 0
 45c:	31 91       	ld	r19, Z+
 45e:	24 2f       	mov	r18, r20
 460:	27 70       	andi	r18, 0x07	; 7
 462:	54 2f       	mov	r21, r20
 464:	56 95       	lsr	r21
 466:	56 95       	lsr	r21
 468:	56 95       	lsr	r21
 46a:	52 30       	cpi	r21, 0x02	; 2
 46c:	09 f4       	brne	.+2      	; 0x470 <DIO_INIT+0x1e>
 46e:	6b c0       	rjmp	.+214    	; 0x546 <DIO_INIT+0xf4>
 470:	53 30       	cpi	r21, 0x03	; 3
 472:	09 f4       	brne	.+2      	; 0x476 <DIO_INIT+0x24>
 474:	9b c0       	rjmp	.+310    	; 0x5ac <DIO_INIT+0x15a>
 476:	51 30       	cpi	r21, 0x01	; 1
 478:	99 f1       	breq	.+102    	; 0x4e0 <DIO_INIT+0x8e>
 47a:	31 30       	cpi	r19, 0x01	; 1
 47c:	09 f1       	breq	.+66     	; 0x4c0 <DIO_INIT+0x6e>
 47e:	90 f0       	brcs	.+36     	; 0x4a4 <DIO_INIT+0x52>
 480:	32 30       	cpi	r19, 0x02	; 2
 482:	09 f0       	breq	.+2      	; 0x486 <DIO_INIT+0x34>
 484:	c4 c0       	rjmp	.+392    	; 0x60e <DIO_INIT+0x1bc>
 486:	5a b3       	in	r21, 0x1a	; 26
 488:	bc 01       	movw	r22, r24
 48a:	02 c0       	rjmp	.+4      	; 0x490 <DIO_INIT+0x3e>
 48c:	66 0f       	add	r22, r22
 48e:	77 1f       	adc	r23, r23
 490:	2a 95       	dec	r18
 492:	e2 f7       	brpl	.-8      	; 0x48c <DIO_INIT+0x3a>
 494:	9b 01       	movw	r18, r22
 496:	36 2f       	mov	r19, r22
 498:	30 95       	com	r19
 49a:	35 23       	and	r19, r21
 49c:	3a bb       	out	0x1a, r19	; 26
 49e:	3b b3       	in	r19, 0x1b	; 27
 4a0:	23 2b       	or	r18, r19
 4a2:	1c c0       	rjmp	.+56     	; 0x4dc <DIO_INIT+0x8a>
 4a4:	5a b3       	in	r21, 0x1a	; 26
 4a6:	bc 01       	movw	r22, r24
 4a8:	02 c0       	rjmp	.+4      	; 0x4ae <DIO_INIT+0x5c>
 4aa:	66 0f       	add	r22, r22
 4ac:	77 1f       	adc	r23, r23
 4ae:	2a 95       	dec	r18
 4b0:	e2 f7       	brpl	.-8      	; 0x4aa <DIO_INIT+0x58>
 4b2:	9b 01       	movw	r18, r22
 4b4:	35 2f       	mov	r19, r21
 4b6:	32 2b       	or	r19, r18
 4b8:	3a bb       	out	0x1a, r19	; 26
 4ba:	3b b3       	in	r19, 0x1b	; 27
 4bc:	20 95       	com	r18
 4be:	0d c0       	rjmp	.+26     	; 0x4da <DIO_INIT+0x88>
 4c0:	5a b3       	in	r21, 0x1a	; 26
 4c2:	bc 01       	movw	r22, r24
 4c4:	02 c0       	rjmp	.+4      	; 0x4ca <DIO_INIT+0x78>
 4c6:	66 0f       	add	r22, r22
 4c8:	77 1f       	adc	r23, r23
 4ca:	2a 95       	dec	r18
 4cc:	e2 f7       	brpl	.-8      	; 0x4c6 <DIO_INIT+0x74>
 4ce:	9b 01       	movw	r18, r22
 4d0:	20 95       	com	r18
 4d2:	35 2f       	mov	r19, r21
 4d4:	32 23       	and	r19, r18
 4d6:	3a bb       	out	0x1a, r19	; 26
 4d8:	3b b3       	in	r19, 0x1b	; 27
 4da:	23 23       	and	r18, r19
 4dc:	2b bb       	out	0x1b, r18	; 27
 4de:	97 c0       	rjmp	.+302    	; 0x60e <DIO_INIT+0x1bc>
 4e0:	31 30       	cpi	r19, 0x01	; 1
 4e2:	09 f1       	breq	.+66     	; 0x526 <DIO_INIT+0xd4>
 4e4:	90 f0       	brcs	.+36     	; 0x50a <DIO_INIT+0xb8>
 4e6:	32 30       	cpi	r19, 0x02	; 2
 4e8:	09 f0       	breq	.+2      	; 0x4ec <DIO_INIT+0x9a>
 4ea:	91 c0       	rjmp	.+290    	; 0x60e <DIO_INIT+0x1bc>
 4ec:	57 b3       	in	r21, 0x17	; 23
 4ee:	bc 01       	movw	r22, r24
 4f0:	02 c0       	rjmp	.+4      	; 0x4f6 <DIO_INIT+0xa4>
 4f2:	66 0f       	add	r22, r22
 4f4:	77 1f       	adc	r23, r23
 4f6:	2a 95       	dec	r18
 4f8:	e2 f7       	brpl	.-8      	; 0x4f2 <DIO_INIT+0xa0>
 4fa:	9b 01       	movw	r18, r22
 4fc:	36 2f       	mov	r19, r22
 4fe:	30 95       	com	r19
 500:	35 23       	and	r19, r21
 502:	37 bb       	out	0x17, r19	; 23
 504:	38 b3       	in	r19, 0x18	; 24
 506:	23 2b       	or	r18, r19
 508:	1c c0       	rjmp	.+56     	; 0x542 <DIO_INIT+0xf0>
 50a:	57 b3       	in	r21, 0x17	; 23
 50c:	bc 01       	movw	r22, r24
 50e:	02 c0       	rjmp	.+4      	; 0x514 <DIO_INIT+0xc2>
 510:	66 0f       	add	r22, r22
 512:	77 1f       	adc	r23, r23
 514:	2a 95       	dec	r18
 516:	e2 f7       	brpl	.-8      	; 0x510 <DIO_INIT+0xbe>
 518:	9b 01       	movw	r18, r22
 51a:	35 2f       	mov	r19, r21
 51c:	32 2b       	or	r19, r18
 51e:	37 bb       	out	0x17, r19	; 23
 520:	38 b3       	in	r19, 0x18	; 24
 522:	20 95       	com	r18
 524:	0d c0       	rjmp	.+26     	; 0x540 <DIO_INIT+0xee>
 526:	57 b3       	in	r21, 0x17	; 23
 528:	bc 01       	movw	r22, r24
 52a:	02 c0       	rjmp	.+4      	; 0x530 <DIO_INIT+0xde>
 52c:	66 0f       	add	r22, r22
 52e:	77 1f       	adc	r23, r23
 530:	2a 95       	dec	r18
 532:	e2 f7       	brpl	.-8      	; 0x52c <DIO_INIT+0xda>
 534:	9b 01       	movw	r18, r22
 536:	20 95       	com	r18
 538:	35 2f       	mov	r19, r21
 53a:	32 23       	and	r19, r18
 53c:	37 bb       	out	0x17, r19	; 23
 53e:	38 b3       	in	r19, 0x18	; 24
 540:	23 23       	and	r18, r19
 542:	28 bb       	out	0x18, r18	; 24
 544:	64 c0       	rjmp	.+200    	; 0x60e <DIO_INIT+0x1bc>
 546:	31 30       	cpi	r19, 0x01	; 1
 548:	09 f1       	breq	.+66     	; 0x58c <DIO_INIT+0x13a>
 54a:	90 f0       	brcs	.+36     	; 0x570 <DIO_INIT+0x11e>
 54c:	32 30       	cpi	r19, 0x02	; 2
 54e:	09 f0       	breq	.+2      	; 0x552 <DIO_INIT+0x100>
 550:	5e c0       	rjmp	.+188    	; 0x60e <DIO_INIT+0x1bc>
 552:	54 b3       	in	r21, 0x14	; 20
 554:	bc 01       	movw	r22, r24
 556:	02 c0       	rjmp	.+4      	; 0x55c <DIO_INIT+0x10a>
 558:	66 0f       	add	r22, r22
 55a:	77 1f       	adc	r23, r23
 55c:	2a 95       	dec	r18
 55e:	e2 f7       	brpl	.-8      	; 0x558 <DIO_INIT+0x106>
 560:	9b 01       	movw	r18, r22
 562:	36 2f       	mov	r19, r22
 564:	30 95       	com	r19
 566:	35 23       	and	r19, r21
 568:	34 bb       	out	0x14, r19	; 20
 56a:	35 b3       	in	r19, 0x15	; 21
 56c:	23 2b       	or	r18, r19
 56e:	1c c0       	rjmp	.+56     	; 0x5a8 <DIO_INIT+0x156>
 570:	54 b3       	in	r21, 0x14	; 20
 572:	bc 01       	movw	r22, r24
 574:	02 c0       	rjmp	.+4      	; 0x57a <DIO_INIT+0x128>
 576:	66 0f       	add	r22, r22
 578:	77 1f       	adc	r23, r23
 57a:	2a 95       	dec	r18
 57c:	e2 f7       	brpl	.-8      	; 0x576 <DIO_INIT+0x124>
 57e:	9b 01       	movw	r18, r22
 580:	35 2f       	mov	r19, r21
 582:	32 2b       	or	r19, r18
 584:	34 bb       	out	0x14, r19	; 20
 586:	35 b3       	in	r19, 0x15	; 21
 588:	20 95       	com	r18
 58a:	0d c0       	rjmp	.+26     	; 0x5a6 <DIO_INIT+0x154>
 58c:	54 b3       	in	r21, 0x14	; 20
 58e:	bc 01       	movw	r22, r24
 590:	02 c0       	rjmp	.+4      	; 0x596 <DIO_INIT+0x144>
 592:	66 0f       	add	r22, r22
 594:	77 1f       	adc	r23, r23
 596:	2a 95       	dec	r18
 598:	e2 f7       	brpl	.-8      	; 0x592 <DIO_INIT+0x140>
 59a:	9b 01       	movw	r18, r22
 59c:	20 95       	com	r18
 59e:	35 2f       	mov	r19, r21
 5a0:	32 23       	and	r19, r18
 5a2:	34 bb       	out	0x14, r19	; 20
 5a4:	35 b3       	in	r19, 0x15	; 21
 5a6:	23 23       	and	r18, r19
 5a8:	25 bb       	out	0x15, r18	; 21
 5aa:	31 c0       	rjmp	.+98     	; 0x60e <DIO_INIT+0x1bc>
 5ac:	31 30       	cpi	r19, 0x01	; 1
 5ae:	01 f1       	breq	.+64     	; 0x5f0 <DIO_INIT+0x19e>
 5b0:	88 f0       	brcs	.+34     	; 0x5d4 <DIO_INIT+0x182>
 5b2:	32 30       	cpi	r19, 0x02	; 2
 5b4:	61 f5       	brne	.+88     	; 0x60e <DIO_INIT+0x1bc>
 5b6:	51 b3       	in	r21, 0x11	; 17
 5b8:	bc 01       	movw	r22, r24
 5ba:	02 c0       	rjmp	.+4      	; 0x5c0 <DIO_INIT+0x16e>
 5bc:	66 0f       	add	r22, r22
 5be:	77 1f       	adc	r23, r23
 5c0:	2a 95       	dec	r18
 5c2:	e2 f7       	brpl	.-8      	; 0x5bc <DIO_INIT+0x16a>
 5c4:	9b 01       	movw	r18, r22
 5c6:	36 2f       	mov	r19, r22
 5c8:	30 95       	com	r19
 5ca:	35 23       	and	r19, r21
 5cc:	31 bb       	out	0x11, r19	; 17
 5ce:	32 b3       	in	r19, 0x12	; 18
 5d0:	23 2b       	or	r18, r19
 5d2:	1c c0       	rjmp	.+56     	; 0x60c <DIO_INIT+0x1ba>
 5d4:	51 b3       	in	r21, 0x11	; 17
 5d6:	bc 01       	movw	r22, r24
 5d8:	02 c0       	rjmp	.+4      	; 0x5de <DIO_INIT+0x18c>
 5da:	66 0f       	add	r22, r22
 5dc:	77 1f       	adc	r23, r23
 5de:	2a 95       	dec	r18
 5e0:	e2 f7       	brpl	.-8      	; 0x5da <DIO_INIT+0x188>
 5e2:	9b 01       	movw	r18, r22
 5e4:	35 2f       	mov	r19, r21
 5e6:	32 2b       	or	r19, r18
 5e8:	31 bb       	out	0x11, r19	; 17
 5ea:	32 b3       	in	r19, 0x12	; 18
 5ec:	20 95       	com	r18
 5ee:	0d c0       	rjmp	.+26     	; 0x60a <DIO_INIT+0x1b8>
 5f0:	51 b3       	in	r21, 0x11	; 17
 5f2:	bc 01       	movw	r22, r24
 5f4:	02 c0       	rjmp	.+4      	; 0x5fa <DIO_INIT+0x1a8>
 5f6:	66 0f       	add	r22, r22
 5f8:	77 1f       	adc	r23, r23
 5fa:	2a 95       	dec	r18
 5fc:	e2 f7       	brpl	.-8      	; 0x5f6 <DIO_INIT+0x1a4>
 5fe:	9b 01       	movw	r18, r22
 600:	20 95       	com	r18
 602:	35 2f       	mov	r19, r21
 604:	32 23       	and	r19, r18
 606:	31 bb       	out	0x11, r19	; 17
 608:	32 b3       	in	r19, 0x12	; 18
 60a:	23 23       	and	r18, r19
 60c:	22 bb       	out	0x12, r18	; 18
 60e:	4f 5f       	subi	r20, 0xFF	; 255
 610:	40 32       	cpi	r20, 0x20	; 32
 612:	09 f0       	breq	.+2      	; 0x616 <DIO_INIT+0x1c4>
 614:	23 cf       	rjmp	.-442    	; 0x45c <DIO_INIT+0xa>
 616:	08 95       	ret

00000618 <setpinvalue>:
 618:	98 2f       	mov	r25, r24
 61a:	96 95       	lsr	r25
 61c:	96 95       	lsr	r25
 61e:	96 95       	lsr	r25
 620:	94 30       	cpi	r25, 0x04	; 4
 622:	08 f0       	brcs	.+2      	; 0x626 <setpinvalue+0xe>
 624:	84 c0       	rjmp	.+264    	; 0x72e <setpinvalue+0x116>
 626:	87 70       	andi	r24, 0x07	; 7
 628:	92 30       	cpi	r25, 0x02	; 2
 62a:	09 f4       	brne	.+2      	; 0x62e <setpinvalue+0x16>
 62c:	43 c0       	rjmp	.+134    	; 0x6b4 <setpinvalue+0x9c>
 62e:	93 30       	cpi	r25, 0x03	; 3
 630:	09 f4       	brne	.+2      	; 0x634 <setpinvalue+0x1c>
 632:	5e c0       	rjmp	.+188    	; 0x6f0 <setpinvalue+0xd8>
 634:	91 30       	cpi	r25, 0x01	; 1
 636:	f9 f0       	breq	.+62     	; 0x676 <setpinvalue+0x5e>
 638:	66 23       	and	r22, r22
 63a:	79 f0       	breq	.+30     	; 0x65a <setpinvalue+0x42>
 63c:	61 30       	cpi	r22, 0x01	; 1
 63e:	09 f0       	breq	.+2      	; 0x642 <setpinvalue+0x2a>
 640:	76 c0       	rjmp	.+236    	; 0x72e <setpinvalue+0x116>
 642:	4b b3       	in	r20, 0x1b	; 27
 644:	21 e0       	ldi	r18, 0x01	; 1
 646:	30 e0       	ldi	r19, 0x00	; 0
 648:	b9 01       	movw	r22, r18
 64a:	02 c0       	rjmp	.+4      	; 0x650 <setpinvalue+0x38>
 64c:	66 0f       	add	r22, r22
 64e:	77 1f       	adc	r23, r23
 650:	8a 95       	dec	r24
 652:	e2 f7       	brpl	.-8      	; 0x64c <setpinvalue+0x34>
 654:	cb 01       	movw	r24, r22
 656:	84 2b       	or	r24, r20
 658:	0c c0       	rjmp	.+24     	; 0x672 <setpinvalue+0x5a>
 65a:	4b b3       	in	r20, 0x1b	; 27
 65c:	21 e0       	ldi	r18, 0x01	; 1
 65e:	30 e0       	ldi	r19, 0x00	; 0
 660:	b9 01       	movw	r22, r18
 662:	02 c0       	rjmp	.+4      	; 0x668 <setpinvalue+0x50>
 664:	66 0f       	add	r22, r22
 666:	77 1f       	adc	r23, r23
 668:	8a 95       	dec	r24
 66a:	e2 f7       	brpl	.-8      	; 0x664 <setpinvalue+0x4c>
 66c:	cb 01       	movw	r24, r22
 66e:	80 95       	com	r24
 670:	84 23       	and	r24, r20
 672:	8b bb       	out	0x1b, r24	; 27
 674:	4d c0       	rjmp	.+154    	; 0x710 <setpinvalue+0xf8>
 676:	66 23       	and	r22, r22
 678:	79 f0       	breq	.+30     	; 0x698 <setpinvalue+0x80>
 67a:	61 30       	cpi	r22, 0x01	; 1
 67c:	09 f0       	breq	.+2      	; 0x680 <setpinvalue+0x68>
 67e:	57 c0       	rjmp	.+174    	; 0x72e <setpinvalue+0x116>
 680:	48 b3       	in	r20, 0x18	; 24
 682:	21 e0       	ldi	r18, 0x01	; 1
 684:	30 e0       	ldi	r19, 0x00	; 0
 686:	b9 01       	movw	r22, r18
 688:	02 c0       	rjmp	.+4      	; 0x68e <setpinvalue+0x76>
 68a:	66 0f       	add	r22, r22
 68c:	77 1f       	adc	r23, r23
 68e:	8a 95       	dec	r24
 690:	e2 f7       	brpl	.-8      	; 0x68a <setpinvalue+0x72>
 692:	cb 01       	movw	r24, r22
 694:	84 2b       	or	r24, r20
 696:	0c c0       	rjmp	.+24     	; 0x6b0 <setpinvalue+0x98>
 698:	48 b3       	in	r20, 0x18	; 24
 69a:	21 e0       	ldi	r18, 0x01	; 1
 69c:	30 e0       	ldi	r19, 0x00	; 0
 69e:	b9 01       	movw	r22, r18
 6a0:	02 c0       	rjmp	.+4      	; 0x6a6 <setpinvalue+0x8e>
 6a2:	66 0f       	add	r22, r22
 6a4:	77 1f       	adc	r23, r23
 6a6:	8a 95       	dec	r24
 6a8:	e2 f7       	brpl	.-8      	; 0x6a2 <setpinvalue+0x8a>
 6aa:	cb 01       	movw	r24, r22
 6ac:	80 95       	com	r24
 6ae:	84 23       	and	r24, r20
 6b0:	88 bb       	out	0x18, r24	; 24
 6b2:	2e c0       	rjmp	.+92     	; 0x710 <setpinvalue+0xf8>
 6b4:	66 23       	and	r22, r22
 6b6:	71 f0       	breq	.+28     	; 0x6d4 <setpinvalue+0xbc>
 6b8:	61 30       	cpi	r22, 0x01	; 1
 6ba:	c9 f5       	brne	.+114    	; 0x72e <setpinvalue+0x116>
 6bc:	45 b3       	in	r20, 0x15	; 21
 6be:	21 e0       	ldi	r18, 0x01	; 1
 6c0:	30 e0       	ldi	r19, 0x00	; 0
 6c2:	b9 01       	movw	r22, r18
 6c4:	02 c0       	rjmp	.+4      	; 0x6ca <setpinvalue+0xb2>
 6c6:	66 0f       	add	r22, r22
 6c8:	77 1f       	adc	r23, r23
 6ca:	8a 95       	dec	r24
 6cc:	e2 f7       	brpl	.-8      	; 0x6c6 <setpinvalue+0xae>
 6ce:	cb 01       	movw	r24, r22
 6d0:	84 2b       	or	r24, r20
 6d2:	0c c0       	rjmp	.+24     	; 0x6ec <setpinvalue+0xd4>
 6d4:	45 b3       	in	r20, 0x15	; 21
 6d6:	21 e0       	ldi	r18, 0x01	; 1
 6d8:	30 e0       	ldi	r19, 0x00	; 0
 6da:	b9 01       	movw	r22, r18
 6dc:	02 c0       	rjmp	.+4      	; 0x6e2 <setpinvalue+0xca>
 6de:	66 0f       	add	r22, r22
 6e0:	77 1f       	adc	r23, r23
 6e2:	8a 95       	dec	r24
 6e4:	e2 f7       	brpl	.-8      	; 0x6de <setpinvalue+0xc6>
 6e6:	cb 01       	movw	r24, r22
 6e8:	80 95       	com	r24
 6ea:	84 23       	and	r24, r20
 6ec:	85 bb       	out	0x15, r24	; 21
 6ee:	10 c0       	rjmp	.+32     	; 0x710 <setpinvalue+0xf8>
 6f0:	66 23       	and	r22, r22
 6f2:	81 f0       	breq	.+32     	; 0x714 <setpinvalue+0xfc>
 6f4:	61 30       	cpi	r22, 0x01	; 1
 6f6:	d9 f4       	brne	.+54     	; 0x72e <setpinvalue+0x116>
 6f8:	42 b3       	in	r20, 0x12	; 18
 6fa:	21 e0       	ldi	r18, 0x01	; 1
 6fc:	30 e0       	ldi	r19, 0x00	; 0
 6fe:	b9 01       	movw	r22, r18
 700:	02 c0       	rjmp	.+4      	; 0x706 <setpinvalue+0xee>
 702:	66 0f       	add	r22, r22
 704:	77 1f       	adc	r23, r23
 706:	8a 95       	dec	r24
 708:	e2 f7       	brpl	.-8      	; 0x702 <setpinvalue+0xea>
 70a:	cb 01       	movw	r24, r22
 70c:	84 2b       	or	r24, r20
 70e:	82 bb       	out	0x12, r24	; 18
 710:	80 e0       	ldi	r24, 0x00	; 0
 712:	08 95       	ret
 714:	42 b3       	in	r20, 0x12	; 18
 716:	21 e0       	ldi	r18, 0x01	; 1
 718:	30 e0       	ldi	r19, 0x00	; 0
 71a:	b9 01       	movw	r22, r18
 71c:	02 c0       	rjmp	.+4      	; 0x722 <setpinvalue+0x10a>
 71e:	66 0f       	add	r22, r22
 720:	77 1f       	adc	r23, r23
 722:	8a 95       	dec	r24
 724:	e2 f7       	brpl	.-8      	; 0x71e <setpinvalue+0x106>
 726:	cb 01       	movw	r24, r22
 728:	80 95       	com	r24
 72a:	84 23       	and	r24, r20
 72c:	f0 cf       	rjmp	.-32     	; 0x70e <setpinvalue+0xf6>
 72e:	81 e0       	ldi	r24, 0x01	; 1
 730:	08 95       	ret

00000732 <getpinvalue>:
 732:	fb 01       	movw	r30, r22
 734:	98 2f       	mov	r25, r24
 736:	96 95       	lsr	r25
 738:	96 95       	lsr	r25
 73a:	96 95       	lsr	r25
 73c:	94 30       	cpi	r25, 0x04	; 4
 73e:	d0 f4       	brcc	.+52     	; 0x774 <getpinvalue+0x42>
 740:	28 2f       	mov	r18, r24
 742:	27 70       	andi	r18, 0x07	; 7
 744:	92 30       	cpi	r25, 0x02	; 2
 746:	41 f0       	breq	.+16     	; 0x758 <getpinvalue+0x26>
 748:	93 30       	cpi	r25, 0x03	; 3
 74a:	89 f0       	breq	.+34     	; 0x76e <getpinvalue+0x3c>
 74c:	91 30       	cpi	r25, 0x01	; 1
 74e:	11 f0       	breq	.+4      	; 0x754 <getpinvalue+0x22>
 750:	89 b3       	in	r24, 0x19	; 25
 752:	03 c0       	rjmp	.+6      	; 0x75a <getpinvalue+0x28>
 754:	86 b3       	in	r24, 0x16	; 22
 756:	01 c0       	rjmp	.+2      	; 0x75a <getpinvalue+0x28>
 758:	83 b3       	in	r24, 0x13	; 19
 75a:	90 e0       	ldi	r25, 0x00	; 0
 75c:	02 c0       	rjmp	.+4      	; 0x762 <getpinvalue+0x30>
 75e:	95 95       	asr	r25
 760:	87 95       	ror	r24
 762:	2a 95       	dec	r18
 764:	e2 f7       	brpl	.-8      	; 0x75e <getpinvalue+0x2c>
 766:	81 70       	andi	r24, 0x01	; 1
 768:	80 83       	st	Z, r24
 76a:	80 e0       	ldi	r24, 0x00	; 0
 76c:	08 95       	ret
 76e:	90 b3       	in	r25, 0x10	; 16
 770:	89 2f       	mov	r24, r25
 772:	f3 cf       	rjmp	.-26     	; 0x75a <getpinvalue+0x28>
 774:	81 e0       	ldi	r24, 0x01	; 1
 776:	08 95       	ret

00000778 <__vector_1>:
 778:	1f 92       	push	r1
 77a:	0f 92       	push	r0
 77c:	0f b6       	in	r0, 0x3f	; 63
 77e:	0f 92       	push	r0
 780:	11 24       	eor	r1, r1
 782:	2f 93       	push	r18
 784:	3f 93       	push	r19
 786:	4f 93       	push	r20
 788:	5f 93       	push	r21
 78a:	6f 93       	push	r22
 78c:	7f 93       	push	r23
 78e:	8f 93       	push	r24
 790:	9f 93       	push	r25
 792:	af 93       	push	r26
 794:	bf 93       	push	r27
 796:	ef 93       	push	r30
 798:	ff 93       	push	r31
 79a:	e0 91 ee 00 	lds	r30, 0x00EE	; 0x8000ee <INT0_Fptr>
 79e:	f0 91 ef 00 	lds	r31, 0x00EF	; 0x8000ef <INT0_Fptr+0x1>
 7a2:	30 97       	sbiw	r30, 0x00	; 0
 7a4:	09 f0       	breq	.+2      	; 0x7a8 <__vector_1+0x30>
 7a6:	09 95       	icall
 7a8:	ff 91       	pop	r31
 7aa:	ef 91       	pop	r30
 7ac:	bf 91       	pop	r27
 7ae:	af 91       	pop	r26
 7b0:	9f 91       	pop	r25
 7b2:	8f 91       	pop	r24
 7b4:	7f 91       	pop	r23
 7b6:	6f 91       	pop	r22
 7b8:	5f 91       	pop	r21
 7ba:	4f 91       	pop	r20
 7bc:	3f 91       	pop	r19
 7be:	2f 91       	pop	r18
 7c0:	0f 90       	pop	r0
 7c2:	0f be       	out	0x3f, r0	; 63
 7c4:	0f 90       	pop	r0
 7c6:	1f 90       	pop	r1
 7c8:	18 95       	reti

000007ca <__vector_2>:
 7ca:	1f 92       	push	r1
 7cc:	0f 92       	push	r0
 7ce:	0f b6       	in	r0, 0x3f	; 63
 7d0:	0f 92       	push	r0
 7d2:	11 24       	eor	r1, r1
 7d4:	2f 93       	push	r18
 7d6:	3f 93       	push	r19
 7d8:	4f 93       	push	r20
 7da:	5f 93       	push	r21
 7dc:	6f 93       	push	r22
 7de:	7f 93       	push	r23
 7e0:	8f 93       	push	r24
 7e2:	9f 93       	push	r25
 7e4:	af 93       	push	r26
 7e6:	bf 93       	push	r27
 7e8:	ef 93       	push	r30
 7ea:	ff 93       	push	r31
 7ec:	e0 91 ec 00 	lds	r30, 0x00EC	; 0x8000ec <INT1_Fptr>
 7f0:	f0 91 ed 00 	lds	r31, 0x00ED	; 0x8000ed <INT1_Fptr+0x1>
 7f4:	30 97       	sbiw	r30, 0x00	; 0
 7f6:	09 f0       	breq	.+2      	; 0x7fa <__vector_2+0x30>
 7f8:	09 95       	icall
 7fa:	ff 91       	pop	r31
 7fc:	ef 91       	pop	r30
 7fe:	bf 91       	pop	r27
 800:	af 91       	pop	r26
 802:	9f 91       	pop	r25
 804:	8f 91       	pop	r24
 806:	7f 91       	pop	r23
 808:	6f 91       	pop	r22
 80a:	5f 91       	pop	r21
 80c:	4f 91       	pop	r20
 80e:	3f 91       	pop	r19
 810:	2f 91       	pop	r18
 812:	0f 90       	pop	r0
 814:	0f be       	out	0x3f, r0	; 63
 816:	0f 90       	pop	r0
 818:	1f 90       	pop	r1
 81a:	18 95       	reti

0000081c <__vector_3>:
 81c:	1f 92       	push	r1
 81e:	0f 92       	push	r0
 820:	0f b6       	in	r0, 0x3f	; 63
 822:	0f 92       	push	r0
 824:	11 24       	eor	r1, r1
 826:	2f 93       	push	r18
 828:	3f 93       	push	r19
 82a:	4f 93       	push	r20
 82c:	5f 93       	push	r21
 82e:	6f 93       	push	r22
 830:	7f 93       	push	r23
 832:	8f 93       	push	r24
 834:	9f 93       	push	r25
 836:	af 93       	push	r26
 838:	bf 93       	push	r27
 83a:	ef 93       	push	r30
 83c:	ff 93       	push	r31
 83e:	e0 91 ea 00 	lds	r30, 0x00EA	; 0x8000ea <__data_end>
 842:	f0 91 eb 00 	lds	r31, 0x00EB	; 0x8000eb <__data_end+0x1>
 846:	30 97       	sbiw	r30, 0x00	; 0
 848:	09 f0       	breq	.+2      	; 0x84c <__vector_3+0x30>
 84a:	09 95       	icall
 84c:	ff 91       	pop	r31
 84e:	ef 91       	pop	r30
 850:	bf 91       	pop	r27
 852:	af 91       	pop	r26
 854:	9f 91       	pop	r25
 856:	8f 91       	pop	r24
 858:	7f 91       	pop	r23
 85a:	6f 91       	pop	r22
 85c:	5f 91       	pop	r21
 85e:	4f 91       	pop	r20
 860:	3f 91       	pop	r19
 862:	2f 91       	pop	r18
 864:	0f 90       	pop	r0
 866:	0f be       	out	0x3f, r0	; 63
 868:	0f 90       	pop	r0
 86a:	1f 90       	pop	r1
 86c:	18 95       	reti

0000086e <Timer0_Init>:
 86e:	81 30       	cpi	r24, 0x01	; 1
 870:	71 f0       	breq	.+28     	; 0x88e <Timer0_Init+0x20>
 872:	38 f0       	brcs	.+14     	; 0x882 <Timer0_Init+0x14>
 874:	82 30       	cpi	r24, 0x02	; 2
 876:	41 f0       	breq	.+16     	; 0x888 <Timer0_Init+0x1a>
 878:	83 30       	cpi	r24, 0x03	; 3
 87a:	99 f4       	brne	.+38     	; 0x8a2 <Timer0_Init+0x34>
 87c:	83 b7       	in	r24, 0x33	; 51
 87e:	80 64       	ori	r24, 0x40	; 64
 880:	0c c0       	rjmp	.+24     	; 0x89a <Timer0_Init+0x2c>
 882:	83 b7       	in	r24, 0x33	; 51
 884:	8f 7b       	andi	r24, 0xBF	; 191
 886:	05 c0       	rjmp	.+10     	; 0x892 <Timer0_Init+0x24>
 888:	83 b7       	in	r24, 0x33	; 51
 88a:	8f 7b       	andi	r24, 0xBF	; 191
 88c:	06 c0       	rjmp	.+12     	; 0x89a <Timer0_Init+0x2c>
 88e:	83 b7       	in	r24, 0x33	; 51
 890:	80 64       	ori	r24, 0x40	; 64
 892:	83 bf       	out	0x33, r24	; 51
 894:	83 b7       	in	r24, 0x33	; 51
 896:	87 7f       	andi	r24, 0xF7	; 247
 898:	03 c0       	rjmp	.+6      	; 0x8a0 <Timer0_Init+0x32>
 89a:	83 bf       	out	0x33, r24	; 51
 89c:	83 b7       	in	r24, 0x33	; 51
 89e:	88 60       	ori	r24, 0x08	; 8
 8a0:	83 bf       	out	0x33, r24	; 51
 8a2:	83 b7       	in	r24, 0x33	; 51
 8a4:	88 7f       	andi	r24, 0xF8	; 248
 8a6:	83 bf       	out	0x33, r24	; 51
 8a8:	83 b7       	in	r24, 0x33	; 51
 8aa:	67 70       	andi	r22, 0x07	; 7
 8ac:	68 2b       	or	r22, r24
 8ae:	63 bf       	out	0x33, r22	; 51
 8b0:	88 b7       	in	r24, 0x38	; 56
 8b2:	8e 7f       	andi	r24, 0xFE	; 254
 8b4:	88 bf       	out	0x38, r24	; 56
 8b6:	08 95       	ret

000008b8 <Timer0_OC0Mode>:
 8b8:	81 30       	cpi	r24, 0x01	; 1
 8ba:	49 f0       	breq	.+18     	; 0x8ce <Timer0_OC0Mode+0x16>
 8bc:	28 f0       	brcs	.+10     	; 0x8c8 <Timer0_OC0Mode+0x10>
 8be:	82 30       	cpi	r24, 0x02	; 2
 8c0:	61 f0       	breq	.+24     	; 0x8da <Timer0_OC0Mode+0x22>
 8c2:	83 30       	cpi	r24, 0x03	; 3
 8c4:	69 f0       	breq	.+26     	; 0x8e0 <Timer0_OC0Mode+0x28>
 8c6:	08 95       	ret
 8c8:	83 b7       	in	r24, 0x33	; 51
 8ca:	8f 7e       	andi	r24, 0xEF	; 239
 8cc:	02 c0       	rjmp	.+4      	; 0x8d2 <Timer0_OC0Mode+0x1a>
 8ce:	83 b7       	in	r24, 0x33	; 51
 8d0:	80 61       	ori	r24, 0x10	; 16
 8d2:	83 bf       	out	0x33, r24	; 51
 8d4:	83 b7       	in	r24, 0x33	; 51
 8d6:	8f 7d       	andi	r24, 0xDF	; 223
 8d8:	08 c0       	rjmp	.+16     	; 0x8ea <Timer0_OC0Mode+0x32>
 8da:	83 b7       	in	r24, 0x33	; 51
 8dc:	8f 7e       	andi	r24, 0xEF	; 239
 8de:	02 c0       	rjmp	.+4      	; 0x8e4 <Timer0_OC0Mode+0x2c>
 8e0:	83 b7       	in	r24, 0x33	; 51
 8e2:	80 61       	ori	r24, 0x10	; 16
 8e4:	83 bf       	out	0x33, r24	; 51
 8e6:	83 b7       	in	r24, 0x33	; 51
 8e8:	80 62       	ori	r24, 0x20	; 32
 8ea:	83 bf       	out	0x33, r24	; 51
 8ec:	08 95       	ret

000008ee <__vector_11>:
 8ee:	1f 92       	push	r1
 8f0:	0f 92       	push	r0
 8f2:	0f b6       	in	r0, 0x3f	; 63
 8f4:	0f 92       	push	r0
 8f6:	11 24       	eor	r1, r1
 8f8:	2f 93       	push	r18
 8fa:	3f 93       	push	r19
 8fc:	4f 93       	push	r20
 8fe:	5f 93       	push	r21
 900:	6f 93       	push	r22
 902:	7f 93       	push	r23
 904:	8f 93       	push	r24
 906:	9f 93       	push	r25
 908:	af 93       	push	r26
 90a:	bf 93       	push	r27
 90c:	ef 93       	push	r30
 90e:	ff 93       	push	r31
 910:	e0 91 fe 00 	lds	r30, 0x00FE	; 0x8000fe <Timer0_OVF_Fptr>
 914:	f0 91 ff 00 	lds	r31, 0x00FF	; 0x8000ff <Timer0_OVF_Fptr+0x1>
 918:	30 97       	sbiw	r30, 0x00	; 0
 91a:	09 f0       	breq	.+2      	; 0x91e <__vector_11+0x30>
 91c:	09 95       	icall
 91e:	ff 91       	pop	r31
 920:	ef 91       	pop	r30
 922:	bf 91       	pop	r27
 924:	af 91       	pop	r26
 926:	9f 91       	pop	r25
 928:	8f 91       	pop	r24
 92a:	7f 91       	pop	r23
 92c:	6f 91       	pop	r22
 92e:	5f 91       	pop	r21
 930:	4f 91       	pop	r20
 932:	3f 91       	pop	r19
 934:	2f 91       	pop	r18
 936:	0f 90       	pop	r0
 938:	0f be       	out	0x3f, r0	; 63
 93a:	0f 90       	pop	r0
 93c:	1f 90       	pop	r1
 93e:	18 95       	reti

00000940 <__vector_10>:
 940:	1f 92       	push	r1
 942:	0f 92       	push	r0
 944:	0f b6       	in	r0, 0x3f	; 63
 946:	0f 92       	push	r0
 948:	11 24       	eor	r1, r1
 94a:	2f 93       	push	r18
 94c:	3f 93       	push	r19
 94e:	4f 93       	push	r20
 950:	5f 93       	push	r21
 952:	6f 93       	push	r22
 954:	7f 93       	push	r23
 956:	8f 93       	push	r24
 958:	9f 93       	push	r25
 95a:	af 93       	push	r26
 95c:	bf 93       	push	r27
 95e:	ef 93       	push	r30
 960:	ff 93       	push	r31
 962:	e0 91 fc 00 	lds	r30, 0x00FC	; 0x8000fc <Timer0_OC0_Fptr>
 966:	f0 91 fd 00 	lds	r31, 0x00FD	; 0x8000fd <Timer0_OC0_Fptr+0x1>
 96a:	30 97       	sbiw	r30, 0x00	; 0
 96c:	09 f0       	breq	.+2      	; 0x970 <__vector_10+0x30>
 96e:	09 95       	icall
 970:	ff 91       	pop	r31
 972:	ef 91       	pop	r30
 974:	bf 91       	pop	r27
 976:	af 91       	pop	r26
 978:	9f 91       	pop	r25
 97a:	8f 91       	pop	r24
 97c:	7f 91       	pop	r23
 97e:	6f 91       	pop	r22
 980:	5f 91       	pop	r21
 982:	4f 91       	pop	r20
 984:	3f 91       	pop	r19
 986:	2f 91       	pop	r18
 988:	0f 90       	pop	r0
 98a:	0f be       	out	0x3f, r0	; 63
 98c:	0f 90       	pop	r0
 98e:	1f 90       	pop	r1
 990:	18 95       	reti

00000992 <Timer1_Init>:
 992:	82 30       	cpi	r24, 0x02	; 2
 994:	d9 f0       	breq	.+54     	; 0x9cc <Timer1_Init+0x3a>
 996:	50 f4       	brcc	.+20     	; 0x9ac <Timer1_Init+0x1a>
 998:	88 23       	and	r24, r24
 99a:	79 f0       	breq	.+30     	; 0x9ba <Timer1_Init+0x28>
 99c:	81 30       	cpi	r24, 0x01	; 1
 99e:	71 f5       	brne	.+92     	; 0x9fc <Timer1_Init+0x6a>
 9a0:	8f b5       	in	r24, 0x2f	; 47
 9a2:	8e 7f       	andi	r24, 0xFE	; 254
 9a4:	8f bd       	out	0x2f, r24	; 47
 9a6:	8f b5       	in	r24, 0x2f	; 47
 9a8:	8d 7f       	andi	r24, 0xFD	; 253
 9aa:	21 c0       	rjmp	.+66     	; 0x9ee <Timer1_Init+0x5c>
 9ac:	83 30       	cpi	r24, 0x03	; 3
 9ae:	d1 f0       	breq	.+52     	; 0x9e4 <Timer1_Init+0x52>
 9b0:	84 30       	cpi	r24, 0x04	; 4
 9b2:	21 f5       	brne	.+72     	; 0x9fc <Timer1_Init+0x6a>
 9b4:	8f b5       	in	r24, 0x2f	; 47
 9b6:	81 60       	ori	r24, 0x01	; 1
 9b8:	17 c0       	rjmp	.+46     	; 0x9e8 <Timer1_Init+0x56>
 9ba:	8f b5       	in	r24, 0x2f	; 47
 9bc:	8e 7f       	andi	r24, 0xFE	; 254
 9be:	8f bd       	out	0x2f, r24	; 47
 9c0:	8f b5       	in	r24, 0x2f	; 47
 9c2:	8d 7f       	andi	r24, 0xFD	; 253
 9c4:	8f bd       	out	0x2f, r24	; 47
 9c6:	8e b5       	in	r24, 0x2e	; 46
 9c8:	87 7f       	andi	r24, 0xF7	; 247
 9ca:	08 c0       	rjmp	.+16     	; 0x9dc <Timer1_Init+0x4a>
 9cc:	8f b5       	in	r24, 0x2f	; 47
 9ce:	8e 7f       	andi	r24, 0xFE	; 254
 9d0:	8f bd       	out	0x2f, r24	; 47
 9d2:	8f b5       	in	r24, 0x2f	; 47
 9d4:	8d 7f       	andi	r24, 0xFD	; 253
 9d6:	8f bd       	out	0x2f, r24	; 47
 9d8:	8e b5       	in	r24, 0x2e	; 46
 9da:	88 60       	ori	r24, 0x08	; 8
 9dc:	8e bd       	out	0x2e, r24	; 46
 9de:	8e b5       	in	r24, 0x2e	; 46
 9e0:	8f 7e       	andi	r24, 0xEF	; 239
 9e2:	0b c0       	rjmp	.+22     	; 0x9fa <Timer1_Init+0x68>
 9e4:	8f b5       	in	r24, 0x2f	; 47
 9e6:	8e 7f       	andi	r24, 0xFE	; 254
 9e8:	8f bd       	out	0x2f, r24	; 47
 9ea:	8f b5       	in	r24, 0x2f	; 47
 9ec:	82 60       	ori	r24, 0x02	; 2
 9ee:	8f bd       	out	0x2f, r24	; 47
 9f0:	8e b5       	in	r24, 0x2e	; 46
 9f2:	88 60       	ori	r24, 0x08	; 8
 9f4:	8e bd       	out	0x2e, r24	; 46
 9f6:	8e b5       	in	r24, 0x2e	; 46
 9f8:	80 61       	ori	r24, 0x10	; 16
 9fa:	8e bd       	out	0x2e, r24	; 46
 9fc:	8e b5       	in	r24, 0x2e	; 46
 9fe:	88 7f       	andi	r24, 0xF8	; 248
 a00:	8e bd       	out	0x2e, r24	; 46
 a02:	8e b5       	in	r24, 0x2e	; 46
 a04:	68 2b       	or	r22, r24
 a06:	6e bd       	out	0x2e, r22	; 46
 a08:	08 95       	ret

00000a0a <Timer1_InputCaptureEdge>:
 a0a:	81 11       	cpse	r24, r1
 a0c:	03 c0       	rjmp	.+6      	; 0xa14 <Timer1_InputCaptureEdge+0xa>
 a0e:	8e b5       	in	r24, 0x2e	; 46
 a10:	80 64       	ori	r24, 0x40	; 64
 a12:	04 c0       	rjmp	.+8      	; 0xa1c <Timer1_InputCaptureEdge+0x12>
 a14:	81 30       	cpi	r24, 0x01	; 1
 a16:	19 f4       	brne	.+6      	; 0xa1e <Timer1_InputCaptureEdge+0x14>
 a18:	8e b5       	in	r24, 0x2e	; 46
 a1a:	8f 7b       	andi	r24, 0xBF	; 191
 a1c:	8e bd       	out	0x2e, r24	; 46
 a1e:	08 95       	ret

00000a20 <__vector_9>:
 a20:	1f 92       	push	r1
 a22:	0f 92       	push	r0
 a24:	0f b6       	in	r0, 0x3f	; 63
 a26:	0f 92       	push	r0
 a28:	11 24       	eor	r1, r1
 a2a:	2f 93       	push	r18
 a2c:	3f 93       	push	r19
 a2e:	4f 93       	push	r20
 a30:	5f 93       	push	r21
 a32:	6f 93       	push	r22
 a34:	7f 93       	push	r23
 a36:	8f 93       	push	r24
 a38:	9f 93       	push	r25
 a3a:	af 93       	push	r26
 a3c:	bf 93       	push	r27
 a3e:	ef 93       	push	r30
 a40:	ff 93       	push	r31
 a42:	e0 91 fa 00 	lds	r30, 0x00FA	; 0x8000fa <Timer1_OVF_Fptr>
 a46:	f0 91 fb 00 	lds	r31, 0x00FB	; 0x8000fb <Timer1_OVF_Fptr+0x1>
 a4a:	30 97       	sbiw	r30, 0x00	; 0
 a4c:	09 f0       	breq	.+2      	; 0xa50 <__vector_9+0x30>
 a4e:	09 95       	icall
 a50:	ff 91       	pop	r31
 a52:	ef 91       	pop	r30
 a54:	bf 91       	pop	r27
 a56:	af 91       	pop	r26
 a58:	9f 91       	pop	r25
 a5a:	8f 91       	pop	r24
 a5c:	7f 91       	pop	r23
 a5e:	6f 91       	pop	r22
 a60:	5f 91       	pop	r21
 a62:	4f 91       	pop	r20
 a64:	3f 91       	pop	r19
 a66:	2f 91       	pop	r18
 a68:	0f 90       	pop	r0
 a6a:	0f be       	out	0x3f, r0	; 63
 a6c:	0f 90       	pop	r0
 a6e:	1f 90       	pop	r1
 a70:	18 95       	reti

00000a72 <__vector_7>:
 a72:	1f 92       	push	r1
 a74:	0f 92       	push	r0
 a76:	0f b6       	in	r0, 0x3f	; 63
 a78:	0f 92       	push	r0
 a7a:	11 24       	eor	r1, r1
 a7c:	2f 93       	push	r18
 a7e:	3f 93       	push	r19
 a80:	4f 93       	push	r20
 a82:	5f 93       	push	r21
 a84:	6f 93       	push	r22
 a86:	7f 93       	push	r23
 a88:	8f 93       	push	r24
 a8a:	9f 93       	push	r25
 a8c:	af 93       	push	r26
 a8e:	bf 93       	push	r27
 a90:	ef 93       	push	r30
 a92:	ff 93       	push	r31
 a94:	e0 91 f8 00 	lds	r30, 0x00F8	; 0x8000f8 <Timer1_OCA_Fptr>
 a98:	f0 91 f9 00 	lds	r31, 0x00F9	; 0x8000f9 <Timer1_OCA_Fptr+0x1>
 a9c:	30 97       	sbiw	r30, 0x00	; 0
 a9e:	09 f0       	breq	.+2      	; 0xaa2 <__vector_7+0x30>
 aa0:	09 95       	icall
 aa2:	ff 91       	pop	r31
 aa4:	ef 91       	pop	r30
 aa6:	bf 91       	pop	r27
 aa8:	af 91       	pop	r26
 aaa:	9f 91       	pop	r25
 aac:	8f 91       	pop	r24
 aae:	7f 91       	pop	r23
 ab0:	6f 91       	pop	r22
 ab2:	5f 91       	pop	r21
 ab4:	4f 91       	pop	r20
 ab6:	3f 91       	pop	r19
 ab8:	2f 91       	pop	r18
 aba:	0f 90       	pop	r0
 abc:	0f be       	out	0x3f, r0	; 63
 abe:	0f 90       	pop	r0
 ac0:	1f 90       	pop	r1
 ac2:	18 95       	reti

00000ac4 <__vector_8>:
 ac4:	1f 92       	push	r1
 ac6:	0f 92       	push	r0
 ac8:	0f b6       	in	r0, 0x3f	; 63
 aca:	0f 92       	push	r0
 acc:	11 24       	eor	r1, r1
 ace:	2f 93       	push	r18
 ad0:	3f 93       	push	r19
 ad2:	4f 93       	push	r20
 ad4:	5f 93       	push	r21
 ad6:	6f 93       	push	r22
 ad8:	7f 93       	push	r23
 ada:	8f 93       	push	r24
 adc:	9f 93       	push	r25
 ade:	af 93       	push	r26
 ae0:	bf 93       	push	r27
 ae2:	ef 93       	push	r30
 ae4:	ff 93       	push	r31
 ae6:	e0 91 f6 00 	lds	r30, 0x00F6	; 0x8000f6 <Timer1_OCB_Fptr>
 aea:	f0 91 f7 00 	lds	r31, 0x00F7	; 0x8000f7 <Timer1_OCB_Fptr+0x1>
 aee:	30 97       	sbiw	r30, 0x00	; 0
 af0:	09 f0       	breq	.+2      	; 0xaf4 <__vector_8+0x30>
 af2:	09 95       	icall
 af4:	ff 91       	pop	r31
 af6:	ef 91       	pop	r30
 af8:	bf 91       	pop	r27
 afa:	af 91       	pop	r26
 afc:	9f 91       	pop	r25
 afe:	8f 91       	pop	r24
 b00:	7f 91       	pop	r23
 b02:	6f 91       	pop	r22
 b04:	5f 91       	pop	r21
 b06:	4f 91       	pop	r20
 b08:	3f 91       	pop	r19
 b0a:	2f 91       	pop	r18
 b0c:	0f 90       	pop	r0
 b0e:	0f be       	out	0x3f, r0	; 63
 b10:	0f 90       	pop	r0
 b12:	1f 90       	pop	r1
 b14:	18 95       	reti

00000b16 <__vector_6>:
 b16:	1f 92       	push	r1
 b18:	0f 92       	push	r0
 b1a:	0f b6       	in	r0, 0x3f	; 63
 b1c:	0f 92       	push	r0
 b1e:	11 24       	eor	r1, r1
 b20:	2f 93       	push	r18
 b22:	3f 93       	push	r19
 b24:	4f 93       	push	r20
 b26:	5f 93       	push	r21
 b28:	6f 93       	push	r22
 b2a:	7f 93       	push	r23
 b2c:	8f 93       	push	r24
 b2e:	9f 93       	push	r25
 b30:	af 93       	push	r26
 b32:	bf 93       	push	r27
 b34:	ef 93       	push	r30
 b36:	ff 93       	push	r31
 b38:	e0 91 f4 00 	lds	r30, 0x00F4	; 0x8000f4 <Timer1_ICU_Fptr>
 b3c:	f0 91 f5 00 	lds	r31, 0x00F5	; 0x8000f5 <Timer1_ICU_Fptr+0x1>
 b40:	30 97       	sbiw	r30, 0x00	; 0
 b42:	09 f0       	breq	.+2      	; 0xb46 <__vector_6+0x30>
 b44:	09 95       	icall
 b46:	ff 91       	pop	r31
 b48:	ef 91       	pop	r30
 b4a:	bf 91       	pop	r27
 b4c:	af 91       	pop	r26
 b4e:	9f 91       	pop	r25
 b50:	8f 91       	pop	r24
 b52:	7f 91       	pop	r23
 b54:	6f 91       	pop	r22
 b56:	5f 91       	pop	r21
 b58:	4f 91       	pop	r20
 b5a:	3f 91       	pop	r19
 b5c:	2f 91       	pop	r18
 b5e:	0f 90       	pop	r0
 b60:	0f be       	out	0x3f, r0	; 63
 b62:	0f 90       	pop	r0
 b64:	1f 90       	pop	r1
 b66:	18 95       	reti

00000b68 <__vector_5>:
 b68:	1f 92       	push	r1
 b6a:	0f 92       	push	r0
 b6c:	0f b6       	in	r0, 0x3f	; 63
 b6e:	0f 92       	push	r0
 b70:	11 24       	eor	r1, r1
 b72:	2f 93       	push	r18
 b74:	3f 93       	push	r19
 b76:	4f 93       	push	r20
 b78:	5f 93       	push	r21
 b7a:	6f 93       	push	r22
 b7c:	7f 93       	push	r23
 b7e:	8f 93       	push	r24
 b80:	9f 93       	push	r25
 b82:	af 93       	push	r26
 b84:	bf 93       	push	r27
 b86:	ef 93       	push	r30
 b88:	ff 93       	push	r31
 b8a:	e0 91 f2 00 	lds	r30, 0x00F2	; 0x8000f2 <Timer2_OVF_Fptr>
 b8e:	f0 91 f3 00 	lds	r31, 0x00F3	; 0x8000f3 <Timer2_OVF_Fptr+0x1>
 b92:	30 97       	sbiw	r30, 0x00	; 0
 b94:	09 f0       	breq	.+2      	; 0xb98 <__vector_5+0x30>
 b96:	09 95       	icall
 b98:	ff 91       	pop	r31
 b9a:	ef 91       	pop	r30
 b9c:	bf 91       	pop	r27
 b9e:	af 91       	pop	r26
 ba0:	9f 91       	pop	r25
 ba2:	8f 91       	pop	r24
 ba4:	7f 91       	pop	r23
 ba6:	6f 91       	pop	r22
 ba8:	5f 91       	pop	r21
 baa:	4f 91       	pop	r20
 bac:	3f 91       	pop	r19
 bae:	2f 91       	pop	r18
 bb0:	0f 90       	pop	r0
 bb2:	0f be       	out	0x3f, r0	; 63
 bb4:	0f 90       	pop	r0
 bb6:	1f 90       	pop	r1
 bb8:	18 95       	reti

00000bba <__vector_4>:
 bba:	1f 92       	push	r1
 bbc:	0f 92       	push	r0
 bbe:	0f b6       	in	r0, 0x3f	; 63
 bc0:	0f 92       	push	r0
 bc2:	11 24       	eor	r1, r1
 bc4:	2f 93       	push	r18
 bc6:	3f 93       	push	r19
 bc8:	4f 93       	push	r20
 bca:	5f 93       	push	r21
 bcc:	6f 93       	push	r22
 bce:	7f 93       	push	r23
 bd0:	8f 93       	push	r24
 bd2:	9f 93       	push	r25
 bd4:	af 93       	push	r26
 bd6:	bf 93       	push	r27
 bd8:	ef 93       	push	r30
 bda:	ff 93       	push	r31
 bdc:	e0 91 f0 00 	lds	r30, 0x00F0	; 0x8000f0 <Timer2_OC2_Fptr>
 be0:	f0 91 f1 00 	lds	r31, 0x00F1	; 0x8000f1 <Timer2_OC2_Fptr+0x1>
 be4:	30 97       	sbiw	r30, 0x00	; 0
 be6:	09 f0       	breq	.+2      	; 0xbea <__vector_4+0x30>
 be8:	09 95       	icall
 bea:	ff 91       	pop	r31
 bec:	ef 91       	pop	r30
 bee:	bf 91       	pop	r27
 bf0:	af 91       	pop	r26
 bf2:	9f 91       	pop	r25
 bf4:	8f 91       	pop	r24
 bf6:	7f 91       	pop	r23
 bf8:	6f 91       	pop	r22
 bfa:	5f 91       	pop	r21
 bfc:	4f 91       	pop	r20
 bfe:	3f 91       	pop	r19
 c00:	2f 91       	pop	r18
 c02:	0f 90       	pop	r0
 c04:	0f be       	out	0x3f, r0	; 63
 c06:	0f 90       	pop	r0
 c08:	1f 90       	pop	r1
 c0a:	18 95       	reti

00000c0c <_exit>:
 c0c:	f8 94       	cli

00000c0e <__stop_program>:
 c0e:	ff cf       	rjmp	.-2      	; 0xc0e <__stop_program>
